
_forktest:     file format elf32-i386


Disassembly of section .text:

00000000 <main>:
  printf(1, "fork test OK\n");
}

int
main(void)
{
   0:	8d 4c 24 04          	lea    0x4(%esp),%ecx
   4:	83 e4 f0             	and    $0xfffffff0,%esp
   7:	ff 71 fc             	pushl  -0x4(%ecx)
   a:	55                   	push   %ebp
   b:	89 e5                	mov    %esp,%ebp
   d:	51                   	push   %ecx
   e:	83 ec 04             	sub    $0x4,%esp
  forktest();
  11:	e8 3a 00 00 00       	call   50 <forktest>
  exit();
  16:	e8 87 03 00 00       	call   3a2 <exit>
  1b:	66 90                	xchg   %ax,%ax
  1d:	66 90                	xchg   %ax,%ax
  1f:	90                   	nop

00000020 <printf>:

#define N  1000 

void
printf(int fd, char *s, ...)
{
  20:	55                   	push   %ebp
  21:	89 e5                	mov    %esp,%ebp
  23:	53                   	push   %ebx
  24:	83 ec 10             	sub    $0x10,%esp
  27:	8b 5d 0c             	mov    0xc(%ebp),%ebx
  write(fd, s, strlen(s));
  2a:	53                   	push   %ebx
  2b:	e8 b0 01 00 00       	call   1e0 <strlen>
  30:	83 c4 0c             	add    $0xc,%esp
  33:	50                   	push   %eax
  34:	53                   	push   %ebx
  35:	ff 75 08             	pushl  0x8(%ebp)
  38:	e8 85 03 00 00       	call   3c2 <write>
}
  3d:	83 c4 10             	add    $0x10,%esp
  40:	8b 5d fc             	mov    -0x4(%ebp),%ebx
  43:	c9                   	leave  
  44:	c3                   	ret    
  45:	8d 74 26 00          	lea    0x0(%esi,%eiz,1),%esi
  49:	8d bc 27 00 00 00 00 	lea    0x0(%edi,%eiz,1),%edi

00000050 <forktest>:

void
forktest(void)
{
  50:	55                   	push   %ebp
  51:	89 e5                	mov    %esp,%ebp
  53:	53                   	push   %ebx
  int n, pid;

  printf(1, "fork test\n");

  for(n=0; n<N; n++){
  54:	31 db                	xor    %ebx,%ebx
  write(fd, s, strlen(s));
}

void
forktest(void)
{
  56:	83 ec 10             	sub    $0x10,%esp
#define N  1000 

void
printf(int fd, char *s, ...)
{
  write(fd, s, strlen(s));
  59:	68 54 04 00 00       	push   $0x454
  5e:	e8 7d 01 00 00       	call   1e0 <strlen>
  63:	83 c4 0c             	add    $0xc,%esp
  66:	50                   	push   %eax
  67:	68 54 04 00 00       	push   $0x454
  6c:	6a 01                	push   $0x1
  6e:	e8 4f 03 00 00       	call   3c2 <write>
  73:	83 c4 10             	add    $0x10,%esp
  76:	eb 19                	jmp    91 <forktest+0x41>
  78:	90                   	nop
  79:	8d b4 26 00 00 00 00 	lea    0x0(%esi,%eiz,1),%esi

  for(n=0; n<N; n++){
    pid = fork(DEFAULT_PROC_TICKETS);
    if(pid < 0)
      break;
    if(pid == 0)
  80:	0f 84 8c 00 00 00    	je     112 <forktest+0xc2>
{
  int n, pid;

  printf(1, "fork test\n");

  for(n=0; n<N; n++){
  86:	83 c3 01             	add    $0x1,%ebx
  89:	81 fb e8 03 00 00    	cmp    $0x3e8,%ebx
  8f:	74 5f                	je     f0 <forktest+0xa0>
    pid = fork(DEFAULT_PROC_TICKETS);
  91:	83 ec 0c             	sub    $0xc,%esp
  94:	6a 14                	push   $0x14
  96:	e8 ff 02 00 00       	call   39a <fork>
    if(pid < 0)
  9b:	83 c4 10             	add    $0x10,%esp
  9e:	85 c0                	test   %eax,%eax
  a0:	79 de                	jns    80 <forktest+0x30>
  if(n == N){
    printf(1, "fork claimed to work N times!\n", N);
    exit();
  }

  for(; n > 0; n--){
  a2:	85 db                	test   %ebx,%ebx
  a4:	74 18                	je     be <forktest+0x6e>
  a6:	8d 76 00             	lea    0x0(%esi),%esi
  a9:	8d bc 27 00 00 00 00 	lea    0x0(%edi,%eiz,1),%edi
    if(wait() < 0){
  b0:	e8 f5 02 00 00       	call   3aa <wait>
  b5:	85 c0                	test   %eax,%eax
  b7:	78 5e                	js     117 <forktest+0xc7>
  if(n == N){
    printf(1, "fork claimed to work N times!\n", N);
    exit();
  }

  for(; n > 0; n--){
  b9:	83 eb 01             	sub    $0x1,%ebx
  bc:	75 f2                	jne    b0 <forktest+0x60>
      printf(1, "wait stopped early\n");
      exit();
    }
  }

  if(wait() != -1){
  be:	e8 e7 02 00 00       	call   3aa <wait>
  c3:	83 f8 ff             	cmp    $0xffffffff,%eax
  c6:	75 71                	jne    139 <forktest+0xe9>
#define N  1000 

void
printf(int fd, char *s, ...)
{
  write(fd, s, strlen(s));
  c8:	83 ec 0c             	sub    $0xc,%esp
  cb:	68 86 04 00 00       	push   $0x486
  d0:	e8 0b 01 00 00       	call   1e0 <strlen>
  d5:	83 c4 0c             	add    $0xc,%esp
  d8:	50                   	push   %eax
  d9:	68 86 04 00 00       	push   $0x486
  de:	6a 01                	push   $0x1
  e0:	e8 dd 02 00 00       	call   3c2 <write>
    printf(1, "wait got too many\n");
    exit();
  }

  printf(1, "fork test OK\n");
}
  e5:	8b 5d fc             	mov    -0x4(%ebp),%ebx
  e8:	c9                   	leave  
  e9:	c3                   	ret    
  ea:	8d b6 00 00 00 00    	lea    0x0(%esi),%esi
#define N  1000 

void
printf(int fd, char *s, ...)
{
  write(fd, s, strlen(s));
  f0:	83 ec 0c             	sub    $0xc,%esp
  f3:	68 94 04 00 00       	push   $0x494
  f8:	e8 e3 00 00 00       	call   1e0 <strlen>
  fd:	83 c4 0c             	add    $0xc,%esp
 100:	50                   	push   %eax
 101:	68 94 04 00 00       	push   $0x494
 106:	6a 01                	push   $0x1
 108:	e8 b5 02 00 00       	call   3c2 <write>
      exit();
  }

  if(n == N){
    printf(1, "fork claimed to work N times!\n", N);
    exit();
 10d:	e8 90 02 00 00       	call   3a2 <exit>
  for(n=0; n<N; n++){
    pid = fork(DEFAULT_PROC_TICKETS);
    if(pid < 0)
      break;
    if(pid == 0)
      exit();
 112:	e8 8b 02 00 00       	call   3a2 <exit>
#define N  1000 

void
printf(int fd, char *s, ...)
{
  write(fd, s, strlen(s));
 117:	83 ec 0c             	sub    $0xc,%esp
 11a:	68 5f 04 00 00       	push   $0x45f
 11f:	e8 bc 00 00 00       	call   1e0 <strlen>
 124:	83 c4 0c             	add    $0xc,%esp
 127:	50                   	push   %eax
 128:	68 5f 04 00 00       	push   $0x45f
 12d:	6a 01                	push   $0x1
 12f:	e8 8e 02 00 00       	call   3c2 <write>
  }

  for(; n > 0; n--){
    if(wait() < 0){
      printf(1, "wait stopped early\n");
      exit();
 134:	e8 69 02 00 00       	call   3a2 <exit>
#define N  1000 

void
printf(int fd, char *s, ...)
{
  write(fd, s, strlen(s));
 139:	83 ec 0c             	sub    $0xc,%esp
 13c:	68 73 04 00 00       	push   $0x473
 141:	e8 9a 00 00 00       	call   1e0 <strlen>
 146:	83 c4 0c             	add    $0xc,%esp
 149:	50                   	push   %eax
 14a:	68 73 04 00 00       	push   $0x473
 14f:	6a 01                	push   $0x1
 151:	e8 6c 02 00 00       	call   3c2 <write>
    }
  }

  if(wait() != -1){
    printf(1, "wait got too many\n");
    exit();
 156:	e8 47 02 00 00       	call   3a2 <exit>
 15b:	66 90                	xchg   %ax,%ax
 15d:	66 90                	xchg   %ax,%ax
 15f:	90                   	nop

00000160 <strcpy>:
 160:	55                   	push   %ebp
 161:	89 e5                	mov    %esp,%ebp
 163:	53                   	push   %ebx
 164:	8b 45 08             	mov    0x8(%ebp),%eax
 167:	8b 4d 0c             	mov    0xc(%ebp),%ecx
 16a:	89 c2                	mov    %eax,%edx
 16c:	8d 74 26 00          	lea    0x0(%esi,%eiz,1),%esi
 170:	83 c1 01             	add    $0x1,%ecx
 173:	0f b6 59 ff          	movzbl -0x1(%ecx),%ebx
 177:	83 c2 01             	add    $0x1,%edx
 17a:	84 db                	test   %bl,%bl
 17c:	88 5a ff             	mov    %bl,-0x1(%edx)
 17f:	75 ef                	jne    170 <strcpy+0x10>
 181:	5b                   	pop    %ebx
 182:	5d                   	pop    %ebp
 183:	c3                   	ret    
 184:	8d b6 00 00 00 00    	lea    0x0(%esi),%esi
 18a:	8d bf 00 00 00 00    	lea    0x0(%edi),%edi

00000190 <strcmp>:
 190:	55                   	push   %ebp
 191:	89 e5                	mov    %esp,%ebp
 193:	56                   	push   %esi
 194:	53                   	push   %ebx
 195:	8b 55 08             	mov    0x8(%ebp),%edx
 198:	8b 4d 0c             	mov    0xc(%ebp),%ecx
 19b:	0f b6 02             	movzbl (%edx),%eax
 19e:	0f b6 19             	movzbl (%ecx),%ebx
 1a1:	84 c0                	test   %al,%al
 1a3:	75 1e                	jne    1c3 <strcmp+0x33>
 1a5:	eb 29                	jmp    1d0 <strcmp+0x40>
 1a7:	89 f6                	mov    %esi,%esi
 1a9:	8d bc 27 00 00 00 00 	lea    0x0(%edi,%eiz,1),%edi
 1b0:	83 c2 01             	add    $0x1,%edx
 1b3:	0f b6 02             	movzbl (%edx),%eax
 1b6:	8d 71 01             	lea    0x1(%ecx),%esi
 1b9:	0f b6 59 01          	movzbl 0x1(%ecx),%ebx
 1bd:	84 c0                	test   %al,%al
 1bf:	74 0f                	je     1d0 <strcmp+0x40>
 1c1:	89 f1                	mov    %esi,%ecx
 1c3:	38 d8                	cmp    %bl,%al
 1c5:	74 e9                	je     1b0 <strcmp+0x20>
 1c7:	29 d8                	sub    %ebx,%eax
 1c9:	5b                   	pop    %ebx
 1ca:	5e                   	pop    %esi
 1cb:	5d                   	pop    %ebp
 1cc:	c3                   	ret    
 1cd:	8d 76 00             	lea    0x0(%esi),%esi
 1d0:	31 c0                	xor    %eax,%eax
 1d2:	29 d8                	sub    %ebx,%eax
 1d4:	5b                   	pop    %ebx
 1d5:	5e                   	pop    %esi
 1d6:	5d                   	pop    %ebp
 1d7:	c3                   	ret    
 1d8:	90                   	nop
 1d9:	8d b4 26 00 00 00 00 	lea    0x0(%esi,%eiz,1),%esi

000001e0 <strlen>:
 1e0:	55                   	push   %ebp
 1e1:	89 e5                	mov    %esp,%ebp
 1e3:	8b 4d 08             	mov    0x8(%ebp),%ecx
 1e6:	80 39 00             	cmpb   $0x0,(%ecx)
 1e9:	74 12                	je     1fd <strlen+0x1d>
 1eb:	31 d2                	xor    %edx,%edx
 1ed:	8d 76 00             	lea    0x0(%esi),%esi
 1f0:	83 c2 01             	add    $0x1,%edx
 1f3:	80 3c 11 00          	cmpb   $0x0,(%ecx,%edx,1)
 1f7:	89 d0                	mov    %edx,%eax
 1f9:	75 f5                	jne    1f0 <strlen+0x10>
 1fb:	5d                   	pop    %ebp
 1fc:	c3                   	ret    
 1fd:	31 c0                	xor    %eax,%eax
 1ff:	5d                   	pop    %ebp
 200:	c3                   	ret    
 201:	eb 0d                	jmp    210 <memset>
 203:	90                   	nop
 204:	90                   	nop
 205:	90                   	nop
 206:	90                   	nop
 207:	90                   	nop
 208:	90                   	nop
 209:	90                   	nop
 20a:	90                   	nop
 20b:	90                   	nop
 20c:	90                   	nop
 20d:	90                   	nop
 20e:	90                   	nop
 20f:	90                   	nop

00000210 <memset>:
 210:	55                   	push   %ebp
 211:	89 e5                	mov    %esp,%ebp
 213:	57                   	push   %edi
 214:	8b 55 08             	mov    0x8(%ebp),%edx
 217:	8b 4d 10             	mov    0x10(%ebp),%ecx
 21a:	8b 45 0c             	mov    0xc(%ebp),%eax
 21d:	89 d7                	mov    %edx,%edi
 21f:	fc                   	cld    
 220:	f3 aa                	rep stos %al,%es:(%edi)
 222:	89 d0                	mov    %edx,%eax
 224:	5f                   	pop    %edi
 225:	5d                   	pop    %ebp
 226:	c3                   	ret    
 227:	89 f6                	mov    %esi,%esi
 229:	8d bc 27 00 00 00 00 	lea    0x0(%edi,%eiz,1),%edi

00000230 <strchr>:
 230:	55                   	push   %ebp
 231:	89 e5                	mov    %esp,%ebp
 233:	53                   	push   %ebx
 234:	8b 45 08             	mov    0x8(%ebp),%eax
 237:	8b 5d 0c             	mov    0xc(%ebp),%ebx
 23a:	0f b6 10             	movzbl (%eax),%edx
 23d:	84 d2                	test   %dl,%dl
 23f:	74 1d                	je     25e <strchr+0x2e>
 241:	38 d3                	cmp    %dl,%bl
 243:	89 d9                	mov    %ebx,%ecx
 245:	75 0d                	jne    254 <strchr+0x24>
 247:	eb 17                	jmp    260 <strchr+0x30>
 249:	8d b4 26 00 00 00 00 	lea    0x0(%esi,%eiz,1),%esi
 250:	38 ca                	cmp    %cl,%dl
 252:	74 0c                	je     260 <strchr+0x30>
 254:	83 c0 01             	add    $0x1,%eax
 257:	0f b6 10             	movzbl (%eax),%edx
 25a:	84 d2                	test   %dl,%dl
 25c:	75 f2                	jne    250 <strchr+0x20>
 25e:	31 c0                	xor    %eax,%eax
 260:	5b                   	pop    %ebx
 261:	5d                   	pop    %ebp
 262:	c3                   	ret    
 263:	8d b6 00 00 00 00    	lea    0x0(%esi),%esi
 269:	8d bc 27 00 00 00 00 	lea    0x0(%edi,%eiz,1),%edi

00000270 <gets>:
 270:	55                   	push   %ebp
 271:	89 e5                	mov    %esp,%ebp
 273:	57                   	push   %edi
 274:	56                   	push   %esi
 275:	53                   	push   %ebx
 276:	31 f6                	xor    %esi,%esi
 278:	8d 7d e7             	lea    -0x19(%ebp),%edi
 27b:	83 ec 1c             	sub    $0x1c,%esp
 27e:	eb 29                	jmp    2a9 <gets+0x39>
 280:	83 ec 04             	sub    $0x4,%esp
 283:	6a 01                	push   $0x1
 285:	57                   	push   %edi
 286:	6a 00                	push   $0x0
 288:	e8 2d 01 00 00       	call   3ba <read>
 28d:	83 c4 10             	add    $0x10,%esp
 290:	85 c0                	test   %eax,%eax
 292:	7e 1d                	jle    2b1 <gets+0x41>
 294:	0f b6 45 e7          	movzbl -0x19(%ebp),%eax
 298:	8b 55 08             	mov    0x8(%ebp),%edx
 29b:	89 de                	mov    %ebx,%esi
 29d:	3c 0a                	cmp    $0xa,%al
 29f:	88 44 1a ff          	mov    %al,-0x1(%edx,%ebx,1)
 2a3:	74 1b                	je     2c0 <gets+0x50>
 2a5:	3c 0d                	cmp    $0xd,%al
 2a7:	74 17                	je     2c0 <gets+0x50>
 2a9:	8d 5e 01             	lea    0x1(%esi),%ebx
 2ac:	3b 5d 0c             	cmp    0xc(%ebp),%ebx
 2af:	7c cf                	jl     280 <gets+0x10>
 2b1:	8b 45 08             	mov    0x8(%ebp),%eax
 2b4:	c6 04 30 00          	movb   $0x0,(%eax,%esi,1)
 2b8:	8d 65 f4             	lea    -0xc(%ebp),%esp
 2bb:	5b                   	pop    %ebx
 2bc:	5e                   	pop    %esi
 2bd:	5f                   	pop    %edi
 2be:	5d                   	pop    %ebp
 2bf:	c3                   	ret    
 2c0:	8b 45 08             	mov    0x8(%ebp),%eax
 2c3:	89 de                	mov    %ebx,%esi
 2c5:	c6 04 30 00          	movb   $0x0,(%eax,%esi,1)
 2c9:	8d 65 f4             	lea    -0xc(%ebp),%esp
 2cc:	5b                   	pop    %ebx
 2cd:	5e                   	pop    %esi
 2ce:	5f                   	pop    %edi
 2cf:	5d                   	pop    %ebp
 2d0:	c3                   	ret    
 2d1:	eb 0d                	jmp    2e0 <stat>
 2d3:	90                   	nop
 2d4:	90                   	nop
 2d5:	90                   	nop
 2d6:	90                   	nop
 2d7:	90                   	nop
 2d8:	90                   	nop
 2d9:	90                   	nop
 2da:	90                   	nop
 2db:	90                   	nop
 2dc:	90                   	nop
 2dd:	90                   	nop
 2de:	90                   	nop
 2df:	90                   	nop

000002e0 <stat>:
 2e0:	55                   	push   %ebp
 2e1:	89 e5                	mov    %esp,%ebp
 2e3:	56                   	push   %esi
 2e4:	53                   	push   %ebx
 2e5:	83 ec 08             	sub    $0x8,%esp
 2e8:	6a 00                	push   $0x0
 2ea:	ff 75 08             	pushl  0x8(%ebp)
 2ed:	e8 f0 00 00 00       	call   3e2 <open>
 2f2:	83 c4 10             	add    $0x10,%esp
 2f5:	85 c0                	test   %eax,%eax
 2f7:	78 27                	js     320 <stat+0x40>
 2f9:	83 ec 08             	sub    $0x8,%esp
 2fc:	ff 75 0c             	pushl  0xc(%ebp)
 2ff:	89 c3                	mov    %eax,%ebx
 301:	50                   	push   %eax
 302:	e8 f3 00 00 00       	call   3fa <fstat>
 307:	89 c6                	mov    %eax,%esi
 309:	89 1c 24             	mov    %ebx,(%esp)
 30c:	e8 b9 00 00 00       	call   3ca <close>
 311:	83 c4 10             	add    $0x10,%esp
 314:	89 f0                	mov    %esi,%eax
 316:	8d 65 f8             	lea    -0x8(%ebp),%esp
 319:	5b                   	pop    %ebx
 31a:	5e                   	pop    %esi
 31b:	5d                   	pop    %ebp
 31c:	c3                   	ret    
 31d:	8d 76 00             	lea    0x0(%esi),%esi
 320:	b8 ff ff ff ff       	mov    $0xffffffff,%eax
 325:	eb ef                	jmp    316 <stat+0x36>
 327:	89 f6                	mov    %esi,%esi
 329:	8d bc 27 00 00 00 00 	lea    0x0(%edi,%eiz,1),%edi

00000330 <atoi>:
 330:	55                   	push   %ebp
 331:	89 e5                	mov    %esp,%ebp
 333:	53                   	push   %ebx
 334:	8b 4d 08             	mov    0x8(%ebp),%ecx
 337:	0f be 11             	movsbl (%ecx),%edx
 33a:	8d 42 d0             	lea    -0x30(%edx),%eax
 33d:	3c 09                	cmp    $0x9,%al
 33f:	b8 00 00 00 00       	mov    $0x0,%eax
 344:	77 1f                	ja     365 <atoi+0x35>
 346:	8d 76 00             	lea    0x0(%esi),%esi
 349:	8d bc 27 00 00 00 00 	lea    0x0(%edi,%eiz,1),%edi
 350:	8d 04 80             	lea    (%eax,%eax,4),%eax
 353:	83 c1 01             	add    $0x1,%ecx
 356:	8d 44 42 d0          	lea    -0x30(%edx,%eax,2),%eax
 35a:	0f be 11             	movsbl (%ecx),%edx
 35d:	8d 5a d0             	lea    -0x30(%edx),%ebx
 360:	80 fb 09             	cmp    $0x9,%bl
 363:	76 eb                	jbe    350 <atoi+0x20>
 365:	5b                   	pop    %ebx
 366:	5d                   	pop    %ebp
 367:	c3                   	ret    
 368:	90                   	nop
 369:	8d b4 26 00 00 00 00 	lea    0x0(%esi,%eiz,1),%esi

00000370 <memmove>:
 370:	55                   	push   %ebp
 371:	89 e5                	mov    %esp,%ebp
 373:	56                   	push   %esi
 374:	53                   	push   %ebx
 375:	8b 5d 10             	mov    0x10(%ebp),%ebx
 378:	8b 45 08             	mov    0x8(%ebp),%eax
 37b:	8b 75 0c             	mov    0xc(%ebp),%esi
 37e:	85 db                	test   %ebx,%ebx
 380:	7e 14                	jle    396 <memmove+0x26>
 382:	31 d2                	xor    %edx,%edx
 384:	8d 74 26 00          	lea    0x0(%esi,%eiz,1),%esi
 388:	0f b6 0c 16          	movzbl (%esi,%edx,1),%ecx
 38c:	88 0c 10             	mov    %cl,(%eax,%edx,1)
 38f:	83 c2 01             	add    $0x1,%edx
 392:	39 da                	cmp    %ebx,%edx
 394:	75 f2                	jne    388 <memmove+0x18>
 396:	5b                   	pop    %ebx
 397:	5e                   	pop    %esi
 398:	5d                   	pop    %ebp
 399:	c3                   	ret    

0000039a <fork>:
 39a:	b8 01 00 00 00       	mov    $0x1,%eax
 39f:	cd 40                	int    $0x40
 3a1:	c3                   	ret    

000003a2 <exit>:
 3a2:	b8 02 00 00 00       	mov    $0x2,%eax
 3a7:	cd 40                	int    $0x40
 3a9:	c3                   	ret    

000003aa <wait>:
 3aa:	b8 03 00 00 00       	mov    $0x3,%eax
 3af:	cd 40                	int    $0x40
 3b1:	c3                   	ret    

000003b2 <pipe>:
 3b2:	b8 04 00 00 00       	mov    $0x4,%eax
 3b7:	cd 40                	int    $0x40
 3b9:	c3                   	ret    

000003ba <read>:
 3ba:	b8 05 00 00 00       	mov    $0x5,%eax
 3bf:	cd 40                	int    $0x40
 3c1:	c3                   	ret    

000003c2 <write>:
 3c2:	b8 10 00 00 00       	mov    $0x10,%eax
 3c7:	cd 40                	int    $0x40
 3c9:	c3                   	ret    

000003ca <close>:
 3ca:	b8 15 00 00 00       	mov    $0x15,%eax
 3cf:	cd 40                	int    $0x40
 3d1:	c3                   	ret    

000003d2 <kill>:
 3d2:	b8 06 00 00 00       	mov    $0x6,%eax
 3d7:	cd 40                	int    $0x40
 3d9:	c3                   	ret    

000003da <exec>:
 3da:	b8 07 00 00 00       	mov    $0x7,%eax
 3df:	cd 40                	int    $0x40
 3e1:	c3                   	ret    

000003e2 <open>:
 3e2:	b8 0f 00 00 00       	mov    $0xf,%eax
 3e7:	cd 40                	int    $0x40
 3e9:	c3                   	ret    

000003ea <mknod>:
 3ea:	b8 11 00 00 00       	mov    $0x11,%eax
 3ef:	cd 40                	int    $0x40
 3f1:	c3                   	ret    

000003f2 <unlink>:
 3f2:	b8 12 00 00 00       	mov    $0x12,%eax
 3f7:	cd 40                	int    $0x40
 3f9:	c3                   	ret    

000003fa <fstat>:
 3fa:	b8 08 00 00 00       	mov    $0x8,%eax
 3ff:	cd 40                	int    $0x40
 401:	c3                   	ret    

00000402 <link>:
 402:	b8 13 00 00 00       	mov    $0x13,%eax
 407:	cd 40                	int    $0x40
 409:	c3                   	ret    

0000040a <mkdir>:
 40a:	b8 14 00 00 00       	mov    $0x14,%eax
 40f:	cd 40                	int    $0x40
 411:	c3                   	ret    

00000412 <chdir>:
 412:	b8 09 00 00 00       	mov    $0x9,%eax
 417:	cd 40                	int    $0x40
 419:	c3                   	ret    

0000041a <dup>:
 41a:	b8 0a 00 00 00       	mov    $0xa,%eax
 41f:	cd 40                	int    $0x40
 421:	c3                   	ret    

00000422 <getpid>:
 422:	b8 0b 00 00 00       	mov    $0xb,%eax
 427:	cd 40                	int    $0x40
 429:	c3                   	ret    

0000042a <sbrk>:
 42a:	b8 0c 00 00 00       	mov    $0xc,%eax
 42f:	cd 40                	int    $0x40
 431:	c3                   	ret    

00000432 <sleep>:
 432:	b8 0d 00 00 00       	mov    $0xd,%eax
 437:	cd 40                	int    $0x40
 439:	c3                   	ret    

0000043a <uptime>:
 43a:	b8 0e 00 00 00       	mov    $0xe,%eax
 43f:	cd 40                	int    $0x40
 441:	c3                   	ret    

00000442 <cps>:
 442:	b8 16 00 00 00       	mov    $0x16,%eax
 447:	cd 40                	int    $0x40
 449:	c3                   	ret    

0000044a <cht>:
 44a:	b8 17 00 00 00       	mov    $0x17,%eax
 44f:	cd 40                	int    $0x40
 451:	c3                   	ret    
